LIBRARY     WKHTMLTOX0.DLL

EXPORTS
    _Z11handleErrorbi              @1    @0   
    _ZN11wkhtmltopdf12PdfConverter11addResourceERKNS_8settings9PdfObjectEPK7QString @2    @1   
    _ZN11wkhtmltopdf12PdfConverter11qt_metacallEN11QMetaObject4CallEiPPv @3    @2   
    _ZN11wkhtmltopdf12PdfConverter11qt_metacastEPKc @4    @3   
    _ZN11wkhtmltopdf12PdfConverter14producingFormsEb @5    @4   
    _ZN11wkhtmltopdf12PdfConverter16staticMetaObjectE @6    @5   
    _ZN11wkhtmltopdf12PdfConverter4privEv @7    @6   
    _ZN11wkhtmltopdf12PdfConverter6outputEv @8    @7   
    _ZN11wkhtmltopdf12PdfConverterC1ERNS_8settings9PdfGlobalE @9    @8   
    _ZN11wkhtmltopdf12PdfConverterC2ERNS_8settings9PdfGlobalE @10   @9   
    _ZN11wkhtmltopdf12PdfConverterD0Ev @11   @10  
    _ZN11wkhtmltopdf12PdfConverterD1Ev @12   @11  
    _ZN11wkhtmltopdf12PdfConverterD2Ev @13   @12  
    _ZN11wkhtmltopdf14ImageConverter11qt_metacallEN11QMetaObject4CallEiPPv @14   @13  
    _ZN11wkhtmltopdf14ImageConverter11qt_metacastEPKc @15   @14  
    _ZN11wkhtmltopdf14ImageConverter16staticMetaObjectE @16   @15  
    _ZN11wkhtmltopdf14ImageConverter4privEv @17   @16  
    _ZN11wkhtmltopdf14ImageConverter6outputEv @18   @17  
    _ZN11wkhtmltopdf14ImageConverterC1ERNS_8settings11ImageGlobalEPK7QString @19   @18  
    _ZN11wkhtmltopdf14ImageConverterC2ERNS_8settings11ImageGlobalEPK7QString @20   @19  
    _ZN11wkhtmltopdf14ImageConverterD0Ev @21   @20  
    _ZN11wkhtmltopdf14ImageConverterD1Ev @22   @21  
    _ZN11wkhtmltopdf14ImageConverterD2Ev @23   @22  
    _ZN11wkhtmltopdf8settings10LoadGlobalC1Ev @24   @23  
    _ZN11wkhtmltopdf8settings10LoadGlobalC2Ev @25   @24  
    _ZN11wkhtmltopdf8settings10proxyToStrERKNS0_5ProxyE @26   @25  
    _ZN11wkhtmltopdf8settings10strToProxyEPKcPb @27   @26  
    _ZN11wkhtmltopdf8settings11ImageGlobal3getEPKc @28   @27  
    _ZN11wkhtmltopdf8settings11ImageGlobal3setEPKcRK7QString @29   @28  
    _ZN11wkhtmltopdf8settings11ImageGlobalC1Ev @30   @29  
    _ZN11wkhtmltopdf8settings11ImageGlobalC2Ev @31   @30  
    _ZN11wkhtmltopdf8settings12CropSettingsC1Ev @32   @31  
    _ZN11wkhtmltopdf8settings12CropSettingsC2Ev @33   @32  
    _ZN11wkhtmltopdf8settings12HeaderFooterC1Ev @34   @33  
    _ZN11wkhtmltopdf8settings12HeaderFooterC2Ev @35   @34  
    _ZN11wkhtmltopdf8settings13pageSizeToStrEN8QPrinter8PageSizeE @36   @35  
    _ZN11wkhtmltopdf8settings13strToPageSizeEPKcPb @37   @36  
    _ZN11wkhtmltopdf8settings13strToUnitRealEPKcPb @38   @37  
    _ZN11wkhtmltopdf8settings13unitRealToStrERK5QPairIdN8QPrinter4UnitEEPb @39   @38  
    _ZN11wkhtmltopdf8settings14TableOfContentC1Ev @40   @39  
    _ZN11wkhtmltopdf8settings14TableOfContentC2Ev @41   @40  
    _ZN11wkhtmltopdf8settings14colorModeToStrEN8QPrinter9ColorModeE @42   @41  
    _ZN11wkhtmltopdf8settings14strToColorModeEPKcPb @43   @42  
    _ZN11wkhtmltopdf8settings16orientationToStrEN8QPrinter11OrientationE @44   @43  
    _ZN11wkhtmltopdf8settings16printerModeToStrEN8QPrinter11PrinterModeE @45   @44  
    _ZN11wkhtmltopdf8settings16strToOrientationEPKcPb @46   @45  
    _ZN11wkhtmltopdf8settings16strToPrinterModeEPKcPb @47   @46  
    _ZN11wkhtmltopdf8settings22loadErrorHandlingToStrENS0_8LoadPage17LoadErrorHandlingE @48   @47  
    _ZN11wkhtmltopdf8settings22strToLoadErrorHandlingEPKcPb @49   @48  
    _ZN11wkhtmltopdf8settings3WebC1Ev @50   @49  
    _ZN11wkhtmltopdf8settings3WebC2Ev @51   @50  
    _ZN11wkhtmltopdf8settings4SizeC1Ev @52   @51  
    _ZN11wkhtmltopdf8settings4SizeC2Ev @53   @52  
    _ZN11wkhtmltopdf8settings5ProxyC1Ev @54   @53  
    _ZN11wkhtmltopdf8settings5ProxyC2Ev @55   @54  
    _ZN11wkhtmltopdf8settings6MarginC1Ev @56   @55  
    _ZN11wkhtmltopdf8settings6MarginC2Ev @57   @56  
    _ZN11wkhtmltopdf8settings8LoadPageC1Ev @58   @57  
    _ZN11wkhtmltopdf8settings8LoadPageC2Ev @59   @58  
    _ZN11wkhtmltopdf8settings9PdfGlobal3getEPKc @60   @59  
    _ZN11wkhtmltopdf8settings9PdfGlobal3setEPKcRK7QString @61   @60  
    _ZN11wkhtmltopdf8settings9PdfGlobalC1Ev @62   @61  
    _ZN11wkhtmltopdf8settings9PdfGlobalC2Ev @63   @62  
    _ZN11wkhtmltopdf8settings9PdfObject3getEPKc @64   @63  
    _ZN11wkhtmltopdf8settings9PdfObject3setEPKcRK7QString @65   @64  
    _ZN11wkhtmltopdf8settings9PdfObjectC1Ev @66   @65  
    _ZN11wkhtmltopdf8settings9PdfObjectC2Ev @67   @66  
    _ZN11wkhtmltopdf9Converter10phaseCountEv @68   @67  
    _ZN11wkhtmltopdf9Converter11qt_metacallEN11QMetaObject4CallEiPPv @69   @68  
    _ZN11wkhtmltopdf9Converter11qt_metacastEPKc @70   @69  
    _ZN11wkhtmltopdf9Converter12currentPhaseEv @71   @70  
    _ZN11wkhtmltopdf9Converter12phaseChangedEv @72   @71  
    _ZN11wkhtmltopdf9Converter13httpErrorCodeEv @73   @72  
    _ZN11wkhtmltopdf9Converter14progressStringEv @74   @73  
    _ZN11wkhtmltopdf9Converter15beginConvertionEv @75   @74  
    _ZN11wkhtmltopdf9Converter15progressChangedEi @76   @75  
    _ZN11wkhtmltopdf9Converter16emitCheckboxSvgsERKNS_8settings8LoadPageE @77   @76  
    _ZN11wkhtmltopdf9Converter16phaseDescriptionEi @78   @77  
    _ZN11wkhtmltopdf9Converter16staticMetaObjectE @79   @78  
    _ZN11wkhtmltopdf9Converter18checkboxSvgChangedERK7QString @80   @79  
    _ZN11wkhtmltopdf9Converter21radiobuttonSvgChangedERK7QString @81   @80  
    _ZN11wkhtmltopdf9Converter25checkboxCheckedSvgChangedERK7QString @82   @81  
    _ZN11wkhtmltopdf9Converter28radiobuttonCheckedSvgChangedERK7QString @83   @82  
    _ZN11wkhtmltopdf9Converter5errorERK7QString @84   @83  
    _ZN11wkhtmltopdf9Converter6cancelEv @85   @84  
    _ZN11wkhtmltopdf9Converter7convertEv @86   @85  
    _ZN11wkhtmltopdf9Converter7warningERK7QString @87   @86  
    _ZN11wkhtmltopdf9Converter8finishedEb @88   @87  
    _ZN11wkhtmltopdf9ConverterD0Ev @89   @88  
    _ZN11wkhtmltopdf9ConverterD1Ev @90   @89  
    _ZN12MyLooksStyle11qt_metacallEN11QMetaObject4CallEiPPv @91   @90  
    _ZN12MyLooksStyle11qt_metacastEPKc @92   @91  
    _ZN12MyLooksStyle11radiobuttonE @93   @92  
    _ZN12MyLooksStyle14producingFormsEb @94   @93  
    _ZN12MyLooksStyle14setCheckboxSvgERK7QString @95   @94  
    _ZN12MyLooksStyle16checkbox_checkedE @96   @95  
    _ZN12MyLooksStyle16staticMetaObjectE @97   @96  
    _ZN12MyLooksStyle17setRadioButtonSvgERK7QString @98   @97  
    _ZN12MyLooksStyle19radiobutton_checkedE @99   @98  
    _ZN12MyLooksStyle21setCheckboxCheckedSvgERK7QString @100  @99  
    _ZN12MyLooksStyle24setRadioButtonCheckedSvgERK7QString @101  @100 
    _ZN12MyLooksStyle8checkboxE    @102  @101 
    _ZN12MyLooksStyleC1Ev          @103  @102 
    _ZN12MyLooksStyleC2Ev          @104  @103 
    _ZNK11wkhtmltopdf12PdfConverter10metaObjectEv @105  @104 
    _ZNK11wkhtmltopdf12PdfConverter14globalSettingsEv @106  @105 
    _ZNK11wkhtmltopdf14ImageConverter10metaObjectEv @107  @106 
    _ZNK11wkhtmltopdf9Converter10metaObjectEv @108  @107 
    _ZNK12MyLooksStyle10metaObjectEv @109  @108 
    _ZNK12MyLooksStyle13drawPrimitiveEN6QStyle16PrimitiveElementEPK12QStyleOptionP8QPainterPK7QWidget @110  @109 
    _ZTV12MyLooksStyle             @111  @110 
    _ZTVN11wkhtmltopdf12PdfConverterE @112  @111 
    _ZTVN11wkhtmltopdf14ImageConverterE @113  @112 
    _ZTVN11wkhtmltopdf9ConverterE  @114  @113 
    wkhtmltoimage_convert          @115  @114 
    wkhtmltoimage_convert         = wkhtmltoimage_convert@4             
    wkhtmltoimage_create_converter @117  @116 
    wkhtmltoimage_create_converter= wkhtmltoimage_create_converter@8      
    wkhtmltoimage_create_global_settings @119  @118 
    wkhtmltoimage_create_global_settings= wkhtmltoimage_create_global_settings@0      
    wkhtmltoimage_current_phase    @121  @120 
    wkhtmltoimage_current_phase   = wkhtmltoimage_current_phase@4       
    wkhtmltoimage_deinit           @123  @122 
    wkhtmltoimage_deinit          = wkhtmltoimage_deinit@0              
    wkhtmltoimage_destroy_converter @125  @124 
    wkhtmltoimage_destroy_converter= wkhtmltoimage_destroy_converter@4      
    wkhtmltoimage_extended_qt      @127  @126 
    wkhtmltoimage_extended_qt     = wkhtmltoimage_extended_qt@0         
    wkhtmltoimage_get_global_setting @129  @128 
    wkhtmltoimage_get_global_setting= wkhtmltoimage_get_global_setting@16      
    wkhtmltoimage_get_output       @131  @130 
    wkhtmltoimage_get_output      = wkhtmltoimage_get_output@8          
    wkhtmltoimage_http_error_code  @133  @132 
    wkhtmltoimage_http_error_code = wkhtmltoimage_http_error_code@4      
    wkhtmltoimage_init             @135  @134 
    wkhtmltoimage_init            = wkhtmltoimage_init@4                
    wkhtmltoimage_phase_count      @137  @136 
    wkhtmltoimage_phase_count     = wkhtmltoimage_phase_count@4         
    wkhtmltoimage_phase_description @139  @138 
    wkhtmltoimage_phase_description= wkhtmltoimage_phase_description@8      
    wkhtmltoimage_progress_string  @141  @140 
    wkhtmltoimage_progress_string = wkhtmltoimage_progress_string@4      
    wkhtmltoimage_set_error_callback @143  @142 
    wkhtmltoimage_set_error_callback= wkhtmltoimage_set_error_callback@8      
    wkhtmltoimage_set_finished_callback @145  @144 
    wkhtmltoimage_set_finished_callback= wkhtmltoimage_set_finished_callback@8      
    wkhtmltoimage_set_global_setting @147  @146 
    wkhtmltoimage_set_global_setting= wkhtmltoimage_set_global_setting@12      
    wkhtmltoimage_set_phase_changed_callback @149  @148 
    wkhtmltoimage_set_phase_changed_callback= wkhtmltoimage_set_phase_changed_callback@8      
    wkhtmltoimage_set_progress_changed_callback @151  @150 
    wkhtmltoimage_set_progress_changed_callback= wkhtmltoimage_set_progress_changed_callback@8      
    wkhtmltoimage_set_warning_callback @153  @152 
    wkhtmltoimage_set_warning_callback= wkhtmltoimage_set_warning_callback@8      
    wkhtmltoimage_version          @155  @154 
    wkhtmltoimage_version         = wkhtmltoimage_version@0             
    wkhtmltopdf_add_object         @157  @156 
    wkhtmltopdf_add_object        = wkhtmltopdf_add_object@12           
    wkhtmltopdf_convert            @159  @158 
    wkhtmltopdf_convert           = wkhtmltopdf_convert@4               
    wkhtmltopdf_create_converter   @161  @160 
    wkhtmltopdf_create_converter  = wkhtmltopdf_create_converter@4      
    wkhtmltopdf_create_global_settings @163  @162 
    wkhtmltopdf_create_global_settings= wkhtmltopdf_create_global_settings@0      
    wkhtmltopdf_create_object_settings @165  @164 
    wkhtmltopdf_create_object_settings= wkhtmltopdf_create_object_settings@0      
    wkhtmltopdf_current_phase      @167  @166 
    wkhtmltopdf_current_phase     = wkhtmltopdf_current_phase@4         
    wkhtmltopdf_deinit             @169  @168 
    wkhtmltopdf_deinit            = wkhtmltopdf_deinit@0                
    wkhtmltopdf_destroy_converter  @171  @170 
    wkhtmltopdf_destroy_converter = wkhtmltopdf_destroy_converter@4      
    wkhtmltopdf_extended_qt        @173  @172 
    wkhtmltopdf_extended_qt       = wkhtmltopdf_extended_qt@0           
    wkhtmltopdf_get_global_setting @175  @174 
    wkhtmltopdf_get_global_setting= wkhtmltopdf_get_global_setting@16      
    wkhtmltopdf_get_object_setting @177  @176 
    wkhtmltopdf_get_object_setting= wkhtmltopdf_get_object_setting@16      
    wkhtmltopdf_get_output         @179  @178 
    wkhtmltopdf_get_output        = wkhtmltopdf_get_output@8            
    wkhtmltopdf_http_error_code    @181  @180 
    wkhtmltopdf_http_error_code   = wkhtmltopdf_http_error_code@4       
    wkhtmltopdf_init               @183  @182 
    wkhtmltopdf_init              = wkhtmltopdf_init@4                  
    wkhtmltopdf_phase_count        @185  @184 
    wkhtmltopdf_phase_count       = wkhtmltopdf_phase_count@4           
    wkhtmltopdf_phase_description  @187  @186 
    wkhtmltopdf_phase_description = wkhtmltopdf_phase_description@8      
    wkhtmltopdf_progress_string    @189  @188 
    wkhtmltopdf_progress_string   = wkhtmltopdf_progress_string@4       
    wkhtmltopdf_set_error_callback @191  @190 
    wkhtmltopdf_set_error_callback= wkhtmltopdf_set_error_callback@8      
    wkhtmltopdf_set_finished_callback @193  @192 
    wkhtmltopdf_set_finished_callback= wkhtmltopdf_set_finished_callback@8      
    wkhtmltopdf_set_global_setting @195  @194 
    wkhtmltopdf_set_global_setting= wkhtmltopdf_set_global_setting@12      
    wkhtmltopdf_set_object_setting @197  @196 
    wkhtmltopdf_set_object_setting= wkhtmltopdf_set_object_setting@12      
    wkhtmltopdf_set_phase_changed_callback @199  @198 
    wkhtmltopdf_set_phase_changed_callback= wkhtmltopdf_set_phase_changed_callback@8      
    wkhtmltopdf_set_progress_changed_callback @201  @200 
    wkhtmltopdf_set_progress_changed_callback= wkhtmltopdf_set_progress_changed_callback@8      
    wkhtmltopdf_set_warning_callback @203  @202 
    wkhtmltopdf_set_warning_callback= wkhtmltopdf_set_warning_callback@8      
    wkhtmltopdf_version            @205  @204 
    wkhtmltopdf_version           = wkhtmltopdf_version@0               
