EXPORTS
_Z11handleErrorbi
_ZN11wkhtmltopdf12PdfConverter11addResourceERKNS_8settings9PdfObjectEPK7QString
_ZN11wkhtmltopdf12PdfConverter11qt_metacallEN11QMetaObject4CallEiPPv
_ZN11wkhtmltopdf12PdfConverter11qt_metacastEPKc
_ZN11wkhtmltopdf12PdfConverter14producingFormsEb
_ZN11wkhtmltopdf12PdfConverter16staticMetaObjectE
_ZN11wkhtmltopdf12PdfConverter4privEv
_ZN11wkhtmltopdf12PdfConverter6outputEv
_ZN11wkhtmltopdf12PdfConverterC1ERNS_8settings9PdfGlobalE
_ZN11wkhtmltopdf12PdfConverterC2ERNS_8settings9PdfGlobalE
_ZN11wkhtmltopdf12PdfConverterD0Ev
_ZN11wkhtmltopdf12PdfConverterD1Ev
_ZN11wkhtmltopdf12PdfConverterD2Ev
_ZN11wkhtmltopdf14ImageConverter11qt_metacallEN11QMetaObject4CallEiPPv
_ZN11wkhtmltopdf14ImageConverter11qt_metacastEPKc
_ZN11wkhtmltopdf14ImageConverter16staticMetaObjectE
_ZN11wkhtmltopdf14ImageConverter4privEv
_ZN11wkhtmltopdf14ImageConverter6outputEv
_ZN11wkhtmltopdf14ImageConverterC1ERNS_8settings11ImageGlobalEPK7QString
_ZN11wkhtmltopdf14ImageConverterC2ERNS_8settings11ImageGlobalEPK7QString
_ZN11wkhtmltopdf14ImageConverterD0Ev
_ZN11wkhtmltopdf14ImageConverterD1Ev
_ZN11wkhtmltopdf14ImageConverterD2Ev
_ZN11wkhtmltopdf8settings10LoadGlobalC1Ev
_ZN11wkhtmltopdf8settings10LoadGlobalC2Ev
_ZN11wkhtmltopdf8settings10proxyToStrERKNS0_5ProxyE
_ZN11wkhtmltopdf8settings10strToProxyEPKcPb
_ZN11wkhtmltopdf8settings11ImageGlobal3getEPKc
_ZN11wkhtmltopdf8settings11ImageGlobal3setEPKcRK7QString
_ZN11wkhtmltopdf8settings11ImageGlobalC1Ev
_ZN11wkhtmltopdf8settings11ImageGlobalC2Ev
_ZN11wkhtmltopdf8settings12CropSettingsC1Ev
_ZN11wkhtmltopdf8settings12CropSettingsC2Ev
_ZN11wkhtmltopdf8settings12HeaderFooterC1Ev
_ZN11wkhtmltopdf8settings12HeaderFooterC2Ev
_ZN11wkhtmltopdf8settings13pageSizeToStrEN8QPrinter8PageSizeE
_ZN11wkhtmltopdf8settings13strToPageSizeEPKcPb
_ZN11wkhtmltopdf8settings13strToUnitRealEPKcPb
_ZN11wkhtmltopdf8settings13unitRealToStrERK5QPairIdN8QPrinter4UnitEEPb
_ZN11wkhtmltopdf8settings14TableOfContentC1Ev
_ZN11wkhtmltopdf8settings14TableOfContentC2Ev
_ZN11wkhtmltopdf8settings14colorModeToStrEN8QPrinter9ColorModeE
_ZN11wkhtmltopdf8settings14strToColorModeEPKcPb
_ZN11wkhtmltopdf8settings16orientationToStrEN8QPrinter11OrientationE
_ZN11wkhtmltopdf8settings16printerModeToStrEN8QPrinter11PrinterModeE
_ZN11wkhtmltopdf8settings16strToOrientationEPKcPb
_ZN11wkhtmltopdf8settings16strToPrinterModeEPKcPb
_ZN11wkhtmltopdf8settings22loadErrorHandlingToStrENS0_8LoadPage17LoadErrorHandlingE
_ZN11wkhtmltopdf8settings22strToLoadErrorHandlingEPKcPb
_ZN11wkhtmltopdf8settings3WebC1Ev
_ZN11wkhtmltopdf8settings3WebC2Ev
_ZN11wkhtmltopdf8settings4SizeC1Ev
_ZN11wkhtmltopdf8settings4SizeC2Ev
_ZN11wkhtmltopdf8settings5ProxyC1Ev
_ZN11wkhtmltopdf8settings5ProxyC2Ev
_ZN11wkhtmltopdf8settings6MarginC1Ev
_ZN11wkhtmltopdf8settings6MarginC2Ev
_ZN11wkhtmltopdf8settings8LoadPageC1Ev
_ZN11wkhtmltopdf8settings8LoadPageC2Ev
_ZN11wkhtmltopdf8settings9PdfGlobal3getEPKc
_ZN11wkhtmltopdf8settings9PdfGlobal3setEPKcRK7QString
_ZN11wkhtmltopdf8settings9PdfGlobalC1Ev
_ZN11wkhtmltopdf8settings9PdfGlobalC2Ev
_ZN11wkhtmltopdf8settings9PdfObject3getEPKc
_ZN11wkhtmltopdf8settings9PdfObject3setEPKcRK7QString
_ZN11wkhtmltopdf8settings9PdfObjectC1Ev
_ZN11wkhtmltopdf8settings9PdfObjectC2Ev
_ZN11wkhtmltopdf9Converter10phaseCountEv
_ZN11wkhtmltopdf9Converter11qt_metacallEN11QMetaObject4CallEiPPv
_ZN11wkhtmltopdf9Converter11qt_metacastEPKc
_ZN11wkhtmltopdf9Converter12currentPhaseEv
_ZN11wkhtmltopdf9Converter12phaseChangedEv
_ZN11wkhtmltopdf9Converter13httpErrorCodeEv
_ZN11wkhtmltopdf9Converter14progressStringEv
_ZN11wkhtmltopdf9Converter15beginConvertionEv
_ZN11wkhtmltopdf9Converter15progressChangedEi
_ZN11wkhtmltopdf9Converter16emitCheckboxSvgsERKNS_8settings8LoadPageE
_ZN11wkhtmltopdf9Converter16phaseDescriptionEi
_ZN11wkhtmltopdf9Converter16staticMetaObjectE
_ZN11wkhtmltopdf9Converter18checkboxSvgChangedERK7QString
_ZN11wkhtmltopdf9Converter21radiobuttonSvgChangedERK7QString
_ZN11wkhtmltopdf9Converter25checkboxCheckedSvgChangedERK7QString
_ZN11wkhtmltopdf9Converter28radiobuttonCheckedSvgChangedERK7QString
_ZN11wkhtmltopdf9Converter5errorERK7QString
_ZN11wkhtmltopdf9Converter6cancelEv
_ZN11wkhtmltopdf9Converter7convertEv
_ZN11wkhtmltopdf9Converter7warningERK7QString
_ZN11wkhtmltopdf9Converter8finishedEb
_ZN11wkhtmltopdf9ConverterD0Ev
_ZN11wkhtmltopdf9ConverterD1Ev
_ZN12MyLooksStyle11qt_metacallEN11QMetaObject4CallEiPPv
_ZN12MyLooksStyle11qt_metacastEPKc
_ZN12MyLooksStyle11radiobuttonE
_ZN12MyLooksStyle14producingFormsEb
_ZN12MyLooksStyle14setCheckboxSvgERK7QString
_ZN12MyLooksStyle16checkbox_checkedE
_ZN12MyLooksStyle16staticMetaObjectE
_ZN12MyLooksStyle17setRadioButtonSvgERK7QString
_ZN12MyLooksStyle19radiobutton_checkedE
_ZN12MyLooksStyle21setCheckboxCheckedSvgERK7QString
_ZN12MyLooksStyle24setRadioButtonCheckedSvgERK7QString
_ZN12MyLooksStyle8checkboxE
_ZN12MyLooksStyleC1Ev
_ZN12MyLooksStyleC2Ev
_ZNK11wkhtmltopdf12PdfConverter10metaObjectEv
_ZNK11wkhtmltopdf12PdfConverter14globalSettingsEv
_ZNK11wkhtmltopdf14ImageConverter10metaObjectEv
_ZNK11wkhtmltopdf9Converter10metaObjectEv
_ZNK12MyLooksStyle10metaObjectEv
_ZNK12MyLooksStyle13drawPrimitiveEN6QStyle16PrimitiveElementEPK12QStyleOptionP8QPainterPK7QWidget
_ZTV12MyLooksStyle
_ZTVN11wkhtmltopdf12PdfConverterE
_ZTVN11wkhtmltopdf14ImageConverterE
_ZTVN11wkhtmltopdf9ConverterE
wkhtmltoimage_convert
wkhtmltoimage_convert@4
wkhtmltoimage_create_converter
wkhtmltoimage_create_converter@8
wkhtmltoimage_create_global_settings
wkhtmltoimage_create_global_settings@0
wkhtmltoimage_current_phase
wkhtmltoimage_current_phase@4
wkhtmltoimage_deinit
wkhtmltoimage_deinit@0
wkhtmltoimage_destroy_converter
wkhtmltoimage_destroy_converter@4
wkhtmltoimage_extended_qt
wkhtmltoimage_extended_qt@0
wkhtmltoimage_get_global_setting
wkhtmltoimage_get_global_setting@16
wkhtmltoimage_get_output
wkhtmltoimage_get_output@8
wkhtmltoimage_http_error_code
wkhtmltoimage_http_error_code@4
wkhtmltoimage_init
wkhtmltoimage_init@4
wkhtmltoimage_phase_count
wkhtmltoimage_phase_count@4
wkhtmltoimage_phase_description
wkhtmltoimage_phase_description@8
wkhtmltoimage_progress_string
wkhtmltoimage_progress_string@4
wkhtmltoimage_set_error_callback
wkhtmltoimage_set_error_callback@8
wkhtmltoimage_set_finished_callback
wkhtmltoimage_set_finished_callback@8
wkhtmltoimage_set_global_setting
wkhtmltoimage_set_global_setting@12
wkhtmltoimage_set_phase_changed_callback
wkhtmltoimage_set_phase_changed_callback@8
wkhtmltoimage_set_progress_changed_callback
wkhtmltoimage_set_progress_changed_callback@8
wkhtmltoimage_set_warning_callback
wkhtmltoimage_set_warning_callback@8
wkhtmltoimage_version
wkhtmltoimage_version@0
wkhtmltopdf_add_object
wkhtmltopdf_add_object@12
wkhtmltopdf_convert
wkhtmltopdf_convert@4
wkhtmltopdf_create_converter
wkhtmltopdf_create_converter@4
wkhtmltopdf_create_global_settings
wkhtmltopdf_create_global_settings@0
wkhtmltopdf_create_object_settings
wkhtmltopdf_create_object_settings@0
wkhtmltopdf_current_phase
wkhtmltopdf_current_phase@4
wkhtmltopdf_deinit
wkhtmltopdf_deinit@0
wkhtmltopdf_destroy_converter
wkhtmltopdf_destroy_converter@4
wkhtmltopdf_extended_qt
wkhtmltopdf_extended_qt@0
wkhtmltopdf_get_global_setting
wkhtmltopdf_get_global_setting@16
wkhtmltopdf_get_object_setting
wkhtmltopdf_get_object_setting@16
wkhtmltopdf_get_output
wkhtmltopdf_get_output@8
wkhtmltopdf_http_error_code
wkhtmltopdf_http_error_code@4
wkhtmltopdf_init
wkhtmltopdf_init@4
wkhtmltopdf_phase_count
wkhtmltopdf_phase_count@4
wkhtmltopdf_phase_description
wkhtmltopdf_phase_description@8
wkhtmltopdf_progress_string
wkhtmltopdf_progress_string@4
wkhtmltopdf_set_error_callback
wkhtmltopdf_set_error_callback@8
wkhtmltopdf_set_finished_callback
wkhtmltopdf_set_finished_callback@8
wkhtmltopdf_set_global_setting
wkhtmltopdf_set_global_setting@12
wkhtmltopdf_set_object_setting
wkhtmltopdf_set_object_setting@12
wkhtmltopdf_set_phase_changed_callback
wkhtmltopdf_set_phase_changed_callback@8
wkhtmltopdf_set_progress_changed_callback
wkhtmltopdf_set_progress_changed_callback@8
wkhtmltopdf_set_warning_callback
wkhtmltopdf_set_warning_callback@8
wkhtmltopdf_version
wkhtmltopdf_version@0

